target datalayout = "e-m:e-p270:32:32-p271:32:32-p272:64:64-i64:64-i128:128-f80:128-n8:16:32:64-S128"
target triple = "x86_64-pc-linux-gnu"

%struct.s_p_values = type { ptr, i32, i32, i32, ptr, ptr, ptr, ptr }

; Function Attrs: nounwind uwtable
define dso_local i32 @s_p_get_array(ptr noundef %0, ptr noundef %1, ptr noundef %2, ptr noundef %3) #0 {
  %5 = alloca i32, align 4
  %6 = alloca ptr, align 8
  %7 = alloca ptr, align 8
  %8 = alloca ptr, align 8
  %9 = alloca ptr, align 8
  %10 = alloca ptr, align 8
  %11 = alloca i32, align 4
  store ptr %0, ptr %6, align 8
  store ptr %1, ptr %7, align 8
  store ptr %2, ptr %8, align 8
  store ptr %3, ptr %9, align 8
  call void @llvm.lifetime.start.p0(i64 8, ptr %10) #9
  %12 = load ptr, ptr %8, align 8
  %13 = load ptr, ptr %9, align 8
  %14 = call ptr @_get_check(i32 noundef 7, ptr noundef %12, ptr noundef %13)
  store ptr %14, ptr %10, align 8
  %15 = load ptr, ptr %10, align 8
  %16 = icmp ne ptr %15, null
  br i1 %16, label %17, label %26

17:                                               ; preds = %4
  %18 = load ptr, ptr %10, align 8
  %19 = getelementptr inbounds nuw %struct.s_p_values, ptr %18, i32 0, i32 4
  %20 = load ptr, ptr %19, align 8
  %21 = load ptr, ptr %6, align 8
  store ptr %20, ptr %21, align 8
  %22 = load ptr, ptr %10, align 8
  %23 = getelementptr inbounds nuw %struct.s_p_values, ptr %22, i32 0, i32 3
  %24 = load i32, ptr %23, align 8
  %25 = load ptr, ptr %7, align 8
  store i32 %24, ptr %25, align 4
  store i32 1, ptr %5, align 4
  store i32 1, ptr %11, align 4
  br label %27

26:                                               ; preds = %4
  store i32 0, ptr %5, align 4
  store i32 1, ptr %11, align 4
  br label %27

27:                                               ; preds = %26, %17
  call void @llvm.lifetime.end.p0(i64 8, ptr %10) #9
  %28 = load i32, ptr %5, align 4
  ret i32 %28
}