; Function Attrs: nounwind uwtable
define dso_local range(i32 0, 2) i32 @s_p_get_array(ptr noundef writeonly captures(none) %0, ptr noundef writeonly captures(none) %1, ptr noundef %2, ptr noundef captures(address_is_null) %3) #0 {
  %5 = tail call fastcc ptr @_get_check(i32 noundef 7, ptr noundef %2, ptr noundef %3)
  %.not = icmp eq ptr %5, null
  br i1 %.not, label %11, label %6

6:                                                ; preds = %4
  %7 = getelementptr inbounds nuw i8, ptr %5, i64 24
  %8 = load ptr, ptr %7, align 8
  store ptr %8, ptr %0, align 8
  %9 = getelementptr inbounds nuw i8, ptr %5, i64 16
  %10 = load i32, ptr %9, align 8
  store i32 %10, ptr %1, align 4
  br label %11

11:                                               ; preds = %4, %6
  %.0 = phi i32 [ 1, %6 ], [ 0, %4 ]
  ret i32 %.0
}